target datalayout = "e-m:e-p270:32:32-p271:32:32-p272:64:64-i64:64-i128:128-f80:128-n8:16:32:64-S128"
target triple = "x86_64-pc-linux-gnu"

%struct.slurm_msg = type { %struct.sockaddr_storage, ptr, i32, i32, i32, i8, i32, i8, i32, ptr, ptr, i32, ptr, ptr, i16, i8, i16, i16, %struct.forward, ptr, %struct.sockaddr_storage, ptr }
%struct.forward = type { %struct.slurm_node_alias_addrs_t, i16, i16, ptr, i32, i16, i16 }
%struct.slurm_node_alias_addrs_t = type { i64, ptr, ptr, i32, ptr }
%struct.sockaddr_storage = type { i16, [118 x i8], i64 }
%struct.return_code_msg = type { i32 }
%struct.set_debug_level_msg = type { i32 }

@working_cluster_rec = external global ptr, align 8

; Function Attrs: nounwind uwtable
define dso_local i32 @slurm_set_debug_level(i32 noundef %0) #0 {
  %2 = alloca i32, align 4
  %3 = alloca i32, align 4
  %4 = alloca i32, align 4
  %5 = alloca %struct.slurm_msg, align 8
  %6 = alloca %struct.slurm_msg, align 8
  %7 = alloca %struct.set_debug_level_msg, align 4
  %8 = alloca i32, align 4
  store i32 %0, ptr %3, align 4
  call void @llvm.lifetime.start.p0(i64 4, ptr %4) #6
  call void @llvm.lifetime.start.p0(i64 424, ptr %5) #6
  call void @llvm.lifetime.start.p0(i64 424, ptr %6) #6
  call void @llvm.lifetime.start.p0(i64 4, ptr %7) #6
  call void @slurm_msg_t_init(ptr noundef %5)
  call void @slurm_msg_t_init(ptr noundef %6)
  call void @llvm.memset.p0.i64(ptr align 4 %7, i8 0, i64 4, i1 false)
  %9 = load i32, ptr %3, align 4
  %10 = getelementptr inbounds nuw %struct.set_debug_level_msg, ptr %7, i32 0, i32 0
  store i32 %9, ptr %10, align 4
  %11 = getelementptr inbounds nuw %struct.slurm_msg, ptr %5, i32 0, i32 16
  store i16 1010, ptr %11, align 4
  %12 = getelementptr inbounds nuw %struct.slurm_msg, ptr %5, i32 0, i32 13
  store ptr %7, ptr %12, align 8
  %13 = load ptr, ptr @working_cluster_rec, align 8
  %14 = call i32 @slurm_send_recv_controller_msg(ptr noundef %5, ptr noundef %6, ptr noundef %13)
  %15 = icmp slt i32 %14, 0
  br i1 %15, label %16, label %17

16:                                               ; preds = %1
  store i32 -1, ptr %2, align 4
  store i32 1, ptr %8, align 4
  br label %46

17:                                               ; preds = %1
  %18 = getelementptr inbounds nuw %struct.slurm_msg, ptr %6, i32 0, i32 16
  %19 = load i16, ptr %18, align 4
  %20 = zext i16 %19 to i32
  switch i32 %20, label %40 [
    i32 8001, label %21
  ]

21:                                               ; preds = %17
  %22 = getelementptr inbounds nuw %struct.slurm_msg, ptr %6, i32 0, i32 13
  %23 = load ptr, ptr %22, align 8
  %24 = getelementptr inbounds nuw %struct.return_code_msg, ptr %23, i32 0, i32 0
  %25 = load i32, ptr %24, align 4
  store i32 %25, ptr %4, align 4
  %26 = getelementptr inbounds nuw %struct.slurm_msg, ptr %6, i32 0, i32 13
  %27 = load ptr, ptr %26, align 8
  call void @slurm_free_return_code_msg(ptr noundef %27)
  %28 = load i32, ptr %4, align 4
  %29 = icmp ne i32 %28, 0
  br i1 %29, label %30, label %39

30:                                               ; preds = %21
  br label %31

31:                                               ; preds = %30
  %32 = load i32, ptr %4, align 4
  %33 = call ptr @__errno_location() #7
  store i32 %32, ptr %33, align 4
  %34 = load i32, ptr %4, align 4
  %35 = icmp ne i32 %34, 0
  %36 = select i1 %35, i32 -1, i32 0
  store i32 %36, ptr %2, align 4
  store i32 1, ptr %8, align 4
  br label %46

37:                                               ; No predecessors!
  br label %38

38:                                               ; preds = %37
  br label %39

39:                                               ; preds = %38, %21
  br label %45

40:                                               ; preds = %17
  br label %41

41:                                               ; preds = %40
  %42 = call ptr @__errno_location() #7
  store i32 1000, ptr %42, align 4
  store i32 -1, ptr %2, align 4
  store i32 1, ptr %8, align 4
  br label %46

43:                                               ; No predecessors!
  br label %44

44:                                               ; preds = %43
  br label %45

45:                                               ; preds = %44, %39
  store i32 0, ptr %2, align 4
  store i32 1, ptr %8, align 4
  br label %46

46:                                               ; preds = %45, %41, %31, %16
  call void @llvm.lifetime.end.p0(i64 4, ptr %7) #6
  call void @llvm.lifetime.end.p0(i64 424, ptr %6) #6
  call void @llvm.lifetime.end.p0(i64 424, ptr %5) #6
  call void @llvm.lifetime.end.p0(i64 4, ptr %4) #6
  %47 = load i32, ptr %2, align 4
  ret i32 %47
}